; Function Attrs: mustprogress uwtable
define hidden noundef ptr @_ZN10ODDLParser13OpenDDLParser9parseNameEPcS1_PPNS_4NameE(ptr noundef %0, ptr noundef %1, ptr noundef writeonly captures(none) initializes((0, 8)) %2) local_unnamed_addr #6 align 2 personality ptr @__gxx_personality_v0 {
  %4 = alloca ptr, align 8
  store ptr null, ptr %2, align 8
  %5 = icmp eq ptr %0, null
  %6 = icmp eq ptr %0, %1
  %or.cond = or i1 %5, %6
  br i1 %or.cond, label %25, label %.lr.ph.preheader.i

.lr.ph.preheader.i:                               ; preds = %3
  %7 = ptrtoint ptr %1 to i64
  %8 = ptrtoint ptr %0 to i64
  %9 = sub i64 %7, %8
  %scevgep.i = getelementptr i8, ptr %0, i64 %9
  br label %.lr.ph.i

.lr.ph.i:                                         ; preds = %.critedge2.i, %.lr.ph.preheader.i
  %.010.i = phi ptr [ %11, %.critedge2.i ], [ %0, %.lr.ph.preheader.i ]
  %10 = load i8, ptr %.010.i, align 1
  switch i8 %10, label %_ZN10ODDLParser16lookForNextTokenIcEEPT_S2_S2_.exit [
    i8 32, label %.critedge2.i
    i8 9, label %.critedge2.i
    i8 13, label %.critedge2.i
    i8 10, label %.critedge2.i
    i8 44, label %.critedge2.i
  ]

.critedge2.i:                                     ; preds = %.lr.ph.i, %.lr.ph.i, %.lr.ph.i, %.lr.ph.i, %.lr.ph.i
  %11 = getelementptr inbounds nuw i8, ptr %.010.i, i64 1
  %.not.i = icmp eq ptr %11, %1
  br i1 %.not.i, label %.critedge2.i._ZN10ODDLParser16lookForNextTokenIcEEPT_S2_S2_.exit_crit_edge, label %.lr.ph.i, !llvm.loop !8

.critedge2.i._ZN10ODDLParser16lookForNextTokenIcEEPT_S2_S2_.exit_crit_edge: ; preds = %.critedge2.i
  %.pre = load i8, ptr %scevgep.i, align 1
  br label %_ZN10ODDLParser16lookForNextTokenIcEEPT_S2_S2_.exit

_ZN10ODDLParser16lookForNextTokenIcEEPT_S2_S2_.exit: ; preds = %.lr.ph.i, %.critedge2.i._ZN10ODDLParser16lookForNextTokenIcEEPT_S2_S2_.exit_crit_edge
  %12 = phi i8 [ %.pre, %.critedge2.i._ZN10ODDLParser16lookForNextTokenIcEEPT_S2_S2_.exit_crit_edge ], [ %10, %.lr.ph.i ]
  %.0.lcssa.i = phi ptr [ %scevgep.i, %.critedge2.i._ZN10ODDLParser16lookForNextTokenIcEEPT_S2_S2_.exit_crit_edge ], [ %.010.i, %.lr.ph.i ]
  %13 = and i8 %12, -2
  %switch = icmp eq i8 %13, 36
  br i1 %switch, label %14, label %25

14:                                               ; preds = %_ZN10ODDLParser16lookForNextTokenIcEEPT_S2_S2_.exit
  %15 = getelementptr inbounds nuw i8, ptr %.0.lcssa.i, i64 1
  call void @llvm.lifetime.start.p0(i64 8, ptr nonnull %4) #29
  store ptr null, ptr %4, align 8
  %16 = call noundef ptr @_ZN10ODDLParser13OpenDDLParser15parseIdentifierEPcS1_PPNS_4TextE(ptr noundef nonnull %15, ptr noundef %1, ptr noundef nonnull %4)
  %17 = load ptr, ptr %4, align 8
  %.not25 = icmp eq ptr %17, null
  br i1 %.not25, label %24, label %18

18:                                               ; preds = %14
  %19 = icmp eq i8 %12, 37
  %spec.store.select = zext i1 %19 to i32
  %20 = tail call noalias noundef nonnull dereferenceable(16) ptr @_Znwm(i64 noundef 16) #33
  invoke void @_ZN10ODDLParser4NameC1ENS_8NameTypeEPNS_4TextE(ptr noundef nonnull align 8 dereferenceable(16) %20, i32 noundef %spec.store.select, ptr noundef nonnull %17)
          to label %21 unwind label %22

21:                                               ; preds = %18
  store ptr %20, ptr %2, align 8
  br label %24

22:                                               ; preds = %18
  %23 = landingpad { ptr, i32 }
          cleanup
  tail call void @_ZdlPvm(ptr noundef nonnull %20, i64 noundef 16) #30
  call void @llvm.lifetime.end.p0(i64 8, ptr nonnull %4) #29
  resume { ptr, i32 } %23

24:                                               ; preds = %21, %14
  call void @llvm.lifetime.end.p0(i64 8, ptr nonnull %4) #29
  br label %25

25:                                               ; preds = %_ZN10ODDLParser16lookForNextTokenIcEEPT_S2_S2_.exit, %3, %24
  %.0 = phi ptr [ %16, %24 ], [ %0, %3 ], [ %.0.lcssa.i, %_ZN10ODDLParser16lookForNextTokenIcEEPT_S2_S2_.exit ]
  ret ptr %.0
}